; Function Attrs: nounwind uwtable
define i32 @Nwk_ManPiNum(ptr noundef readonly captures(none) %0) local_unnamed_addr #3 {
  %2 = getelementptr inbounds nuw i8, ptr %0, i64 16
  %3 = load ptr, ptr %2, align 8, !tbaa !31
  %4 = getelementptr i8, ptr %3, i64 4
  %.val9 = load i32, ptr %4, align 4, !tbaa !16
  %5 = icmp sgt i32 %.val9, 0
  br i1 %5, label %.lr.ph, label %.critedge

.lr.ph:                                           ; preds = %1, %Nwk_ObjIsPi.exit
  %6 = phi ptr [ %22, %Nwk_ObjIsPi.exit ], [ %3, %1 ]
  %indvars.iv = phi i64 [ %indvars.iv.next, %Nwk_ObjIsPi.exit ], [ 0, %1 ]
  %.011 = phi i32 [ %24, %Nwk_ObjIsPi.exit ], [ 0, %1 ]
  %7 = getelementptr i8, ptr %6, i64 8
  %.val8 = load ptr, ptr %7, align 8, !tbaa !18
  %8 = getelementptr inbounds nuw ptr, ptr %.val8, i64 %indvars.iv
  %9 = load ptr, ptr %8, align 8, !tbaa !19
  %10 = getelementptr i8, ptr %9, i64 32
  %.val.i = load i32, ptr %10, align 8
  %11 = and i32 %.val.i, 7
  %.not.i = icmp eq i32 %11, 1
  br i1 %.not.i, label %12, label %Nwk_ObjIsPi.exit

12:                                               ; preds = %.lr.ph
  %13 = load ptr, ptr %9, align 8, !tbaa !32
  %14 = getelementptr inbounds nuw i8, ptr %13, i64 72
  %15 = load ptr, ptr %14, align 8, !tbaa !33
  %16 = icmp eq ptr %15, null
  br i1 %16, label %Nwk_ObjIsPi.exit, label %17

17:                                               ; preds = %12
  %18 = lshr i32 %.val.i, 7
  %19 = tail call i32 @Tim_ManBoxForCi(ptr noundef nonnull %15, i32 noundef %18) #17
  %20 = icmp eq i32 %19, -1
  %21 = zext i1 %20 to i32
  %.pre = load ptr, ptr %2, align 8, !tbaa !31
  br label %Nwk_ObjIsPi.exit

Nwk_ObjIsPi.exit:                                 ; preds = %.lr.ph, %12, %17
  %22 = phi ptr [ %6, %.lr.ph ], [ %6, %12 ], [ %.pre, %17 ]
  %23 = phi i32 [ 0, %.lr.ph ], [ 1, %12 ], [ %21, %17 ]
  %24 = add nuw nsw i32 %23, %.011
  %indvars.iv.next = add nuw nsw i64 %indvars.iv, 1
  %25 = getelementptr i8, ptr %22, i64 4
  %.val = load i32, ptr %25, align 4, !tbaa !16
  %26 = sext i32 %.val to i64
  %27 = icmp slt i64 %indvars.iv.next, %26
  br i1 %27, label %.lr.ph, label %.critedge, !llvm.loop !34

.critedge:                                        ; preds = %Nwk_ObjIsPi.exit, %1
  %.0.lcssa = phi i32 [ 0, %1 ], [ %24, %Nwk_ObjIsPi.exit ]
  ret i32 %.0.lcssa
}